target datalayout = "e-m:e-p270:32:32-p271:32:32-p272:64:64-i64:64-i128:128-f80:128-n8:16:32:64-S128"
target triple = "x86_64-pc-linux-gnu"

%"class.llvm::MachineOperand" = type { i32, %union.anon, ptr, %"union.llvm::MachineOperand::ContentsUnion" }
%union.anon = type { i32 }
%"union.llvm::MachineOperand::ContentsUnion" = type { %"class.llvm::ArrayRef.70" }
%"class.llvm::ArrayRef.70" = type { ptr, i64 }
%"class.llvm::Register" = type { i32 }
%"class.llvm::MachineInstr" = type <{ %"class.llvm::ilist_node_with_parent", ptr, ptr, ptr, [3 x i8], %"class.llvm::ArrayRecycler<llvm::MachineOperand>::Capacity", i32, %"class.llvm::PointerSumType", %"class.llvm::DebugLoc", i32, i16, [2 x i8] }>
%"class.llvm::ilist_node_with_parent" = type { %"class.llvm::ilist_node" }
%"class.llvm::ilist_node" = type { %"class.llvm::ilist_node_impl" }
%"class.llvm::ilist_node_impl" = type { %"class.llvm::ilist_node_base" }
%"class.llvm::ilist_node_base" = type { %"class.llvm::ilist_detail::node_base_prevnext" }
%"class.llvm::ilist_detail::node_base_prevnext" = type { %"class.llvm::PointerIntPair", ptr }
%"class.llvm::PointerIntPair" = type { %"struct.llvm::detail::PunnedPointer" }
%"struct.llvm::detail::PunnedPointer" = type { [8 x i8] }
%"class.llvm::ArrayRecycler<llvm::MachineOperand>::Capacity" = type { i8 }
%"class.llvm::PointerSumType" = type { %"union.llvm::PointerSumType<llvm::MachineInstr::ExtraInfoInlineKinds, llvm::PointerSumTypeMember<0, llvm::MachineMemOperand *>, llvm::PointerSumTypeMember<1, llvm::MCSymbol *>, llvm::PointerSumTypeMember<2, llvm::MCSymbol *>, llvm::PointerSumTypeMember<3, llvm::MachineInstr::ExtraInfo *>>::StorageT" }
%"union.llvm::PointerSumType<llvm::MachineInstr::ExtraInfoInlineKinds, llvm::PointerSumTypeMember<0, llvm::MachineMemOperand *>, llvm::PointerSumTypeMember<1, llvm::MCSymbol *>, llvm::PointerSumTypeMember<2, llvm::MCSymbol *>, llvm::PointerSumTypeMember<3, llvm::MachineInstr::ExtraInfo *>>::StorageT" = type { i64 }
%"class.llvm::DebugLoc" = type { %"class.llvm::TypedTrackingMDRef" }
%"class.llvm::TypedTrackingMDRef" = type { %"class.llvm::TrackingMDRef" }
%"class.llvm::TrackingMDRef" = type { ptr }
%"class.llvm::iterator_range.173" = type { ptr, ptr }
%"class.llvm::MCRegister" = type { i32 }

; Function Attrs: mustprogress nounwind uwtable
define linkonce_odr hidden void @_ZN4llvm10MCRegisterC2Ej(ptr noundef nonnull align 4 dereferenceable(4) %0, i32 noundef %1) unnamed_addr #0 comdat align 2 {
  %3 = alloca ptr, align 8
  %4 = alloca i32, align 4
  store ptr %0, ptr %3, align 8
  store i32 %1, ptr %4, align 4
  %5 = load ptr, ptr %3, align 8
  %6 = getelementptr inbounds nuw %"class.llvm::MCRegister", ptr %5, i32 0, i32 0
  %7 = load i32, ptr %4, align 4
  store i32 %7, ptr %6, align 4
  ret void
}

; Function Attrs: mustprogress nounwind uwtable
define linkonce_odr hidden void @_ZN4llvm14iterator_rangeIPNS_14MachineOperandEEC2ES2_S2_(ptr noundef nonnull align 8 dereferenceable(16) %0, ptr noundef %1, ptr noundef %2) unnamed_addr #0 comdat align 2 {
  %4 = alloca ptr, align 8
  %5 = alloca ptr, align 8
  %6 = alloca ptr, align 8
  store ptr %0, ptr %4, align 8
  store ptr %1, ptr %5, align 8
  store ptr %2, ptr %6, align 8
  %7 = load ptr, ptr %4, align 8
  %8 = getelementptr inbounds nuw %"class.llvm::iterator_range.173", ptr %7, i32 0, i32 0
  %9 = load ptr, ptr %5, align 8
  store ptr %9, ptr %8, align 8
  %10 = getelementptr inbounds nuw %"class.llvm::iterator_range.173", ptr %7, i32 0, i32 1
  %11 = load ptr, ptr %6, align 8
  store ptr %11, ptr %10, align 8
  ret void
}

; Function Attrs: mustprogress nounwind uwtable
define linkonce_odr hidden noundef zeroext i1 @_ZN4llvm10MCRegister18isPhysicalRegisterEj(i32 noundef %0) #0 comdat align 2 {
  %2 = alloca i32, align 4
  store i32 %0, ptr %2, align 4
  %3 = load i32, ptr %2, align 4
  %4 = icmp ule i32 1, %3
  br i1 %4, label %5, label %8

5:                                                ; preds = %1
  %6 = load i32, ptr %2, align 4
  %7 = icmp ult i32 %6, 1073741824
  br label %8

8:                                                ; preds = %5, %1
  %9 = phi i1 [ false, %1 ], [ %7, %5 ]
  ret i1 %9
}

; Function Attrs: mustprogress nounwind uwtable
define linkonce_odr hidden i32 @_ZNK4llvm8Register7asMCRegEv(ptr noundef nonnull align 4 dereferenceable(4) %0) #0 comdat align 2 {
  %2 = alloca %"class.llvm::MCRegister", align 4
  %3 = alloca ptr, align 8
  store ptr %0, ptr %3, align 8
  %4 = load ptr, ptr %3, align 8
  %5 = getelementptr inbounds nuw %"class.llvm::Register", ptr %4, i32 0, i32 0
  %6 = load i32, ptr %5, align 4
  call void @_ZN4llvm10MCRegisterC2Ej(ptr noundef nonnull align 4 dereferenceable(4) %2, i32 noundef %6)
  %7 = getelementptr inbounds nuw %"class.llvm::MCRegister", ptr %2, i32 0, i32 0
  %8 = load i32, ptr %7, align 4
  ret i32 %8
}

; Function Attrs: mustprogress nounwind uwtable
define linkonce_odr hidden void @_ZN4llvm8RegisterC2Ej(ptr noundef nonnull align 4 dereferenceable(4) %0, i32 noundef %1) unnamed_addr #0 comdat align 2 {
  %3 = alloca ptr, align 8
  %4 = alloca i32, align 4
  store ptr %0, ptr %3, align 8
  store i32 %1, ptr %4, align 4
  %5 = load ptr, ptr %3, align 8
  %6 = getelementptr inbounds nuw %"class.llvm::Register", ptr %5, i32 0, i32 0
  %7 = load i32, ptr %4, align 4
  store i32 %7, ptr %6, align 4
  ret void
}

; Function Attrs: mustprogress nounwind uwtable
define linkonce_odr { ptr, ptr } @_ZN4llvm10make_rangeIPNS_14MachineOperandEEENS_14iterator_rangeIT_EES4_S4_(ptr noundef %0, ptr noundef %1) #0 comdat {
  %3 = alloca %"class.llvm::iterator_range.173", align 8
  %4 = alloca ptr, align 8
  %5 = alloca ptr, align 8
  store ptr %0, ptr %4, align 8
  store ptr %1, ptr %5, align 8
  %6 = load ptr, ptr %4, align 8
  %7 = load ptr, ptr %5, align 8
  call void @_ZN4llvm14iterator_rangeIPNS_14MachineOperandEEC2ES2_S2_(ptr noundef nonnull align 8 dereferenceable(16) %3, ptr noundef %6, ptr noundef %7)
  %8 = load { ptr, ptr }, ptr %3, align 8
  ret { ptr, ptr } %8
}

; Function Attrs: mustprogress nounwind uwtable
define linkonce_odr hidden noundef ptr @_ZN4llvm12MachineInstr12operands_endEv(ptr noundef nonnull align 8 dereferenceable(70) %0) #0 comdat align 2 {
  %2 = alloca ptr, align 8
  store ptr %0, ptr %2, align 8
  %3 = load ptr, ptr %2, align 8
  %4 = getelementptr inbounds nuw %"class.llvm::MachineInstr", ptr %3, i32 0, i32 3
  %5 = load ptr, ptr %4, align 8
  %6 = getelementptr inbounds nuw %"class.llvm::MachineInstr", ptr %3, i32 0, i32 4
  %7 = load i24, ptr %6, align 8
  %8 = zext i24 %7 to i32
  %9 = sext i32 %8 to i64
  %10 = getelementptr inbounds %"class.llvm::MachineOperand", ptr %5, i64 %9
  ret ptr %10
}

; Function Attrs: mustprogress nounwind uwtable
define linkonce_odr hidden noundef ptr @_ZN4llvm12MachineInstr14operands_beginEv(ptr noundef nonnull align 8 dereferenceable(70) %0) #0 comdat align 2 {
  %2 = alloca ptr, align 8
  store ptr %0, ptr %2, align 8
  %3 = load ptr, ptr %2, align 8
  %4 = getelementptr inbounds nuw %"class.llvm::MachineInstr", ptr %3, i32 0, i32 3
  %5 = load ptr, ptr %4, align 8
  ret ptr %5
}

; Function Attrs: mustprogress nounwind uwtable
define linkonce_odr hidden noundef zeroext i1 @_ZN4llvm8Register18isPhysicalRegisterEj(i32 noundef %0) #0 comdat align 2 {
  %2 = alloca i32, align 4
  store i32 %0, ptr %2, align 4
  %3 = load i32, ptr %2, align 4
  %4 = call noundef zeroext i1 @_ZN4llvm10MCRegister18isPhysicalRegisterEj(i32 noundef %3)
  ret i1 %4
}

; Function Attrs: mustprogress nounwind uwtable
define linkonce_odr hidden void @_ZN4llvm14MachineOperand9setIsKillEb(ptr noundef nonnull align 8 dereferenceable(32) %0, i1 noundef zeroext %1) #0 comdat align 2 {
  %3 = alloca ptr, align 8
  %4 = alloca i8, align 1
  store ptr %0, ptr %3, align 8
  %5 = zext i1 %1 to i8
  store i8 %5, ptr %4, align 1
  %6 = load ptr, ptr %3, align 8
  %7 = load i8, ptr %4, align 1
  %8 = trunc i8 %7 to i1
  %9 = zext i1 %8 to i32
  %10 = load i32, ptr %6, align 8
  %11 = and i32 %9, 1
  %12 = shl i32 %11, 26
  %13 = and i32 %10, -67108865
  %14 = or i32 %13, %12
  store i32 %14, ptr %6, align 8
  ret void
}

; Function Attrs: mustprogress nounwind uwtable
define linkonce_odr hidden noundef zeroext i1 @_ZNK4llvm8RegistereqERKS0_(ptr noundef nonnull align 4 dereferenceable(4) %0, ptr noundef nonnull align 4 dereferenceable(4) %1) #0 comdat align 2 {
  %3 = alloca ptr, align 8
  %4 = alloca ptr, align 8
  store ptr %0, ptr %3, align 8
  store ptr %1, ptr %4, align 8
  %5 = load ptr, ptr %3, align 8
  %6 = getelementptr inbounds nuw %"class.llvm::Register", ptr %5, i32 0, i32 0
  %7 = load i32, ptr %6, align 4
  %8 = load ptr, ptr %4, align 8
  %9 = getelementptr inbounds nuw %"class.llvm::Register", ptr %8, i32 0, i32 0
  %10 = load i32, ptr %9, align 4
  %11 = icmp eq i32 %7, %10
  ret i1 %11
}

; Function Attrs: mustprogress nounwind uwtable
define linkonce_odr hidden noundef zeroext i1 @_ZNK4llvm18TargetRegisterInfo11regsOverlapENS_8RegisterES1_(ptr noundef nonnull align 8 dereferenceable(308) %0, i32 %1, i32 %2) #0 comdat align 2 {
  %4 = alloca i1, align 1
  %5 = alloca %"class.llvm::Register", align 4
  %6 = alloca %"class.llvm::Register", align 4
  %7 = alloca ptr, align 8
  %8 = alloca %"class.llvm::MCRegister", align 4
  %9 = alloca %"class.llvm::MCRegister", align 4
  %10 = getelementptr inbounds nuw %"class.llvm::Register", ptr %5, i32 0, i32 0
  store i32 %1, ptr %10, align 4
  %11 = getelementptr inbounds nuw %"class.llvm::Register", ptr %6, i32 0, i32 0
  store i32 %2, ptr %11, align 4
  store ptr %0, ptr %7, align 8
  %12 = load ptr, ptr %7, align 8
  %13 = call noundef zeroext i1 @_ZNK4llvm8RegistereqERKS0_(ptr noundef nonnull align 4 dereferenceable(4) %5, ptr noundef nonnull align 4 dereferenceable(4) %6)
  br i1 %13, label %14, label %15

14:                                               ; preds = %3
  store i1 true, ptr %4, align 1
  br label %31

15:                                               ; preds = %3
  %16 = call noundef zeroext i1 @_ZNK4llvm8Register10isPhysicalEv(ptr noundef nonnull align 4 dereferenceable(4) %5)
  br i1 %16, label %17, label %30

17:                                               ; preds = %15
  %18 = call noundef zeroext i1 @_ZNK4llvm8Register10isPhysicalEv(ptr noundef nonnull align 4 dereferenceable(4) %6)
  br i1 %18, label %19, label %30

19:                                               ; preds = %17
  %20 = getelementptr inbounds i8, ptr %12, i64 8
  %21 = call i32 @_ZNK4llvm8Register7asMCRegEv(ptr noundef nonnull align 4 dereferenceable(4) %5)
  %22 = getelementptr inbounds nuw %"class.llvm::MCRegister", ptr %8, i32 0, i32 0
  store i32 %21, ptr %22, align 4
  %23 = call i32 @_ZNK4llvm8Register7asMCRegEv(ptr noundef nonnull align 4 dereferenceable(4) %6)
  %24 = getelementptr inbounds nuw %"class.llvm::MCRegister", ptr %9, i32 0, i32 0
  store i32 %23, ptr %24, align 4
  %25 = getelementptr inbounds nuw %"class.llvm::MCRegister", ptr %8, i32 0, i32 0
  %26 = load i32, ptr %25, align 4
  %27 = getelementptr inbounds nuw %"class.llvm::MCRegister", ptr %9, i32 0, i32 0
  %28 = load i32, ptr %27, align 4
  %29 = call noundef zeroext i1 @_ZNK4llvm14MCRegisterInfo11regsOverlapENS_10MCRegisterES1_(ptr noundef nonnull align 8 dereferenceable(224) %20, i32 %26, i32 %28)
  store i1 %29, ptr %4, align 1
  br label %31

30:                                               ; preds = %17, %15
  store i1 false, ptr %4, align 1
  br label %31

31:                                               ; preds = %30, %19, %14
  %32 = load i1, ptr %4, align 1
  ret i1 %32
}

; Function Attrs: mustprogress nounwind uwtable
define linkonce_odr hidden i32 @_ZNK4llvm14MachineOperand6getRegEv(ptr noundef nonnull align 8 dereferenceable(32) %0) #0 comdat align 2 {
  %2 = alloca %"class.llvm::Register", align 4
  %3 = alloca ptr, align 8
  store ptr %0, ptr %3, align 8
  %4 = load ptr, ptr %3, align 8
  %5 = getelementptr inbounds nuw %"class.llvm::MachineOperand", ptr %4, i32 0, i32 1
  %6 = load i32, ptr %5, align 4
  call void @_ZN4llvm8RegisterC2Ej(ptr noundef nonnull align 4 dereferenceable(4) %2, i32 noundef %6)
  %7 = getelementptr inbounds nuw %"class.llvm::Register", ptr %2, i32 0, i32 0
  %8 = load i32, ptr %7, align 4
  ret i32 %8
}

; Function Attrs: mustprogress nounwind uwtable
define linkonce_odr hidden noundef zeroext i1 @_ZNK4llvm14MachineOperand6isKillEv(ptr noundef nonnull align 8 dereferenceable(32) %0) #0 comdat align 2 {
  %2 = alloca ptr, align 8
  store ptr %0, ptr %2, align 8
  %3 = load ptr, ptr %2, align 8
  %4 = load i32, ptr %3, align 8
  %5 = lshr i32 %4, 26
  %6 = and i32 %5, 1
  %7 = load i32, ptr %3, align 8
  %8 = lshr i32 %7, 24
  %9 = and i32 %8, 1
  %10 = icmp ne i32 %9, 0
  %11 = xor i1 %10, true
  %12 = zext i1 %11 to i32
  %13 = and i32 %6, %12
  %14 = icmp ne i32 %13, 0
  ret i1 %14
}

; Function Attrs: mustprogress nounwind uwtable
define linkonce_odr hidden noundef zeroext i1 @_ZNK4llvm14MachineOperand5isUseEv(ptr noundef nonnull align 8 dereferenceable(32) %0) #0 comdat align 2 {
  %2 = alloca ptr, align 8
  store ptr %0, ptr %2, align 8
  %3 = load ptr, ptr %2, align 8
  %4 = load i32, ptr %3, align 8
  %5 = lshr i32 %4, 24
  %6 = and i32 %5, 1
  %7 = icmp ne i32 %6, 0
  %8 = xor i1 %7, true
  ret i1 %8
}

; Function Attrs: mustprogress nounwind uwtable
define linkonce_odr hidden noundef zeroext i1 @_ZNK4llvm14MachineOperand5isRegEv(ptr noundef nonnull align 8 dereferenceable(32) %0) #0 comdat align 2 {
  %2 = alloca ptr, align 8
  store ptr %0, ptr %2, align 8
  %3 = load ptr, ptr %2, align 8
  %4 = load i32, ptr %3, align 8
  %5 = and i32 %4, 255
  %6 = icmp eq i32 %5, 0
  ret i1 %6
}

; Function Attrs: mustprogress nounwind uwtable
define linkonce_odr hidden noundef ptr @_ZNK4llvm14iterator_rangeIPNS_14MachineOperandEE3endEv(ptr noundef nonnull align 8 dereferenceable(16) %0) #0 comdat align 2 {
  %2 = alloca ptr, align 8
  store ptr %0, ptr %2, align 8
  %3 = load ptr, ptr %2, align 8
  %4 = getelementptr inbounds nuw %"class.llvm::iterator_range.173", ptr %3, i32 0, i32 1
  %5 = load ptr, ptr %4, align 8
  ret ptr %5
}

; Function Attrs: mustprogress nounwind uwtable
define linkonce_odr hidden noundef ptr @_ZNK4llvm14iterator_rangeIPNS_14MachineOperandEE5beginEv(ptr noundef nonnull align 8 dereferenceable(16) %0) #0 comdat align 2 {
  %2 = alloca ptr, align 8
  store ptr %0, ptr %2, align 8
  %3 = load ptr, ptr %2, align 8
  %4 = getelementptr inbounds nuw %"class.llvm::iterator_range.173", ptr %3, i32 0, i32 0
  %5 = load ptr, ptr %4, align 8
  ret ptr %5
}

; Function Attrs: mustprogress nounwind uwtable
define linkonce_odr hidden { ptr, ptr } @_ZN4llvm12MachineInstr8operandsEv(ptr noundef nonnull align 8 dereferenceable(70) %0) #0 comdat align 2 {
  %2 = alloca %"class.llvm::iterator_range.173", align 8
  %3 = alloca ptr, align 8
  store ptr %0, ptr %3, align 8
  %4 = load ptr, ptr %3, align 8
  %5 = call noundef ptr @_ZN4llvm12MachineInstr14operands_beginEv(ptr noundef nonnull align 8 dereferenceable(70) %4)
  %6 = call noundef ptr @_ZN4llvm12MachineInstr12operands_endEv(ptr noundef nonnull align 8 dereferenceable(70) %4)
  %7 = call { ptr, ptr } @_ZN4llvm10make_rangeIPNS_14MachineOperandEEENS_14iterator_rangeIT_EES4_S4_(ptr noundef %5, ptr noundef %6)
  %8 = getelementptr inbounds nuw { ptr, ptr }, ptr %2, i32 0, i32 0
  %9 = extractvalue { ptr, ptr } %7, 0
  store ptr %9, ptr %8, align 8
  %10 = getelementptr inbounds nuw { ptr, ptr }, ptr %2, i32 0, i32 1
  %11 = extractvalue { ptr, ptr } %7, 1
  store ptr %11, ptr %10, align 8
  %12 = load { ptr, ptr }, ptr %2, align 8
  ret { ptr, ptr } %12
}

; Function Attrs: mustprogress nounwind uwtable
define linkonce_odr hidden noundef zeroext i1 @_ZNK4llvm8Register10isPhysicalEv(ptr noundef nonnull align 4 dereferenceable(4) %0) #0 comdat align 2 {
  %2 = alloca ptr, align 8
  store ptr %0, ptr %2, align 8
  %3 = load ptr, ptr %2, align 8
  %4 = getelementptr inbounds nuw %"class.llvm::Register", ptr %3, i32 0, i32 0
  %5 = load i32, ptr %4, align 4
  %6 = call noundef zeroext i1 @_ZN4llvm8Register18isPhysicalRegisterEj(i32 noundef %5)
  ret i1 %6
}

; Function Attrs: mustprogress nounwind uwtable
define dso_local void @_ZN4llvm12MachineInstr18clearRegisterKillsENS_8RegisterEPKNS_18TargetRegisterInfoE(ptr noundef nonnull align 8 dereferenceable(70) %0, i32 %1, ptr noundef %2) #0 align 2 {
  %4 = alloca %"class.llvm::Register", align 4
  %5 = alloca ptr, align 8
  %6 = alloca ptr, align 8
  %7 = alloca ptr, align 8
  %8 = alloca %"class.llvm::iterator_range.173", align 8
  %9 = alloca ptr, align 8
  %10 = alloca ptr, align 8
  %11 = alloca ptr, align 8
  %12 = alloca %"class.llvm::Register", align 4
  %13 = alloca %"class.llvm::Register", align 4
  %14 = alloca %"class.llvm::Register", align 4
  %15 = getelementptr inbounds nuw %"class.llvm::Register", ptr %4, i32 0, i32 0
  store i32 %1, ptr %15, align 4
  store ptr %0, ptr %5, align 8
  store ptr %2, ptr %6, align 8
  %16 = load ptr, ptr %5, align 8
  %17 = call noundef zeroext i1 @_ZNK4llvm8Register10isPhysicalEv(ptr noundef nonnull align 4 dereferenceable(4) %4)
  br i1 %17, label %19, label %18

18:                                               ; preds = %3
  store ptr null, ptr %6, align 8
  br label %19

19:                                               ; preds = %18, %3
  %20 = call { ptr, ptr } @_ZN4llvm12MachineInstr8operandsEv(ptr noundef nonnull align 8 dereferenceable(70) %16)
  %21 = getelementptr inbounds nuw { ptr, ptr }, ptr %8, i32 0, i32 0
  %22 = extractvalue { ptr, ptr } %20, 0
  store ptr %22, ptr %21, align 8
  %23 = getelementptr inbounds nuw { ptr, ptr }, ptr %8, i32 0, i32 1
  %24 = extractvalue { ptr, ptr } %20, 1
  store ptr %24, ptr %23, align 8
  store ptr %8, ptr %7, align 8
  %25 = load ptr, ptr %7, align 8
  %26 = call noundef ptr @_ZNK4llvm14iterator_rangeIPNS_14MachineOperandEE5beginEv(ptr noundef nonnull align 8 dereferenceable(16) %25)
  store ptr %26, ptr %9, align 8
  %27 = load ptr, ptr %7, align 8
  %28 = call noundef ptr @_ZNK4llvm14iterator_rangeIPNS_14MachineOperandEE3endEv(ptr noundef nonnull align 8 dereferenceable(16) %27)
  store ptr %28, ptr %10, align 8
  br label %29

29:                                               ; preds = %62, %19
  %30 = load ptr, ptr %9, align 8
  %31 = load ptr, ptr %10, align 8
  %32 = icmp ne ptr %30, %31
  br i1 %32, label %33, label %65

33:                                               ; preds = %29
  %34 = load ptr, ptr %9, align 8
  store ptr %34, ptr %11, align 8
  %35 = load ptr, ptr %11, align 8
  %36 = call noundef zeroext i1 @_ZNK4llvm14MachineOperand5isRegEv(ptr noundef nonnull align 8 dereferenceable(32) %35)
  br i1 %36, label %37, label %43

37:                                               ; preds = %33
  %38 = load ptr, ptr %11, align 8
  %39 = call noundef zeroext i1 @_ZNK4llvm14MachineOperand5isUseEv(ptr noundef nonnull align 8 dereferenceable(32) %38)
  br i1 %39, label %40, label %43

40:                                               ; preds = %37
  %41 = load ptr, ptr %11, align 8
  %42 = call noundef zeroext i1 @_ZNK4llvm14MachineOperand6isKillEv(ptr noundef nonnull align 8 dereferenceable(32) %41)
  br i1 %42, label %44, label %43

43:                                               ; preds = %40, %37, %33
  br label %62

44:                                               ; preds = %40
  %45 = load ptr, ptr %11, align 8
  %46 = call i32 @_ZNK4llvm14MachineOperand6getRegEv(ptr noundef nonnull align 8 dereferenceable(32) %45)
  %47 = getelementptr inbounds nuw %"class.llvm::Register", ptr %12, i32 0, i32 0
  store i32 %46, ptr %47, align 4
  %48 = load ptr, ptr %6, align 8
  %49 = icmp ne ptr %48, null
  br i1 %49, label %50, label %57

50:                                               ; preds = %44
  %51 = load ptr, ptr %6, align 8
  call void @llvm.memcpy.p0.p0.i64(ptr align 4 %13, ptr align 4 %4, i64 4, i1 false)
  call void @llvm.memcpy.p0.p0.i64(ptr align 4 %14, ptr align 4 %12, i64 4, i1 false)
  %52 = getelementptr inbounds nuw %"class.llvm::Register", ptr %13, i32 0, i32 0
  %53 = load i32, ptr %52, align 4
  %54 = getelementptr inbounds nuw %"class.llvm::Register", ptr %14, i32 0, i32 0
  %55 = load i32, ptr %54, align 4
  %56 = call noundef zeroext i1 @_ZNK4llvm18TargetRegisterInfo11regsOverlapENS_8RegisterES1_(ptr noundef nonnull align 8 dereferenceable(308) %51, i32 %53, i32 %55)
  br i1 %56, label %59, label %57

57:                                               ; preds = %50, %44
  %58 = call noundef zeroext i1 @_ZNK4llvm8RegistereqERKS0_(ptr noundef nonnull align 4 dereferenceable(4) %4, ptr noundef nonnull align 4 dereferenceable(4) %12)
  br i1 %58, label %59, label %61

59:                                               ; preds = %57, %50
  %60 = load ptr, ptr %11, align 8
  call void @_ZN4llvm14MachineOperand9setIsKillEb(ptr noundef nonnull align 8 dereferenceable(32) %60, i1 noundef zeroext false)
  br label %61

61:                                               ; preds = %59, %57
  br label %62

62:                                               ; preds = %61, %43
  %63 = load ptr, ptr %9, align 8
  %64 = getelementptr inbounds %"class.llvm::MachineOperand", ptr %63, i32 1
  store ptr %64, ptr %9, align 8
  br label %29

65:                                               ; preds = %29
  ret void
}