; Function Attrs: mustprogress nounwind uwtable
define dso_local void @_ZN4llvm12MachineInstr18clearRegisterKillsENS_8RegisterEPKNS_18TargetRegisterInfoE(ptr nocapture noundef nonnull readonly align 8 dereferenceable(70) %0, i32 %1, ptr noundef %2) local_unnamed_addr #0 align 2 {
  %.fr33 = freeze i32 %1
  %4 = getelementptr inbounds nuw i8, ptr %0, i64 32
  %5 = load ptr, ptr %4, align 8
  %6 = getelementptr inbounds nuw i8, ptr %0, i64 40
  %7 = load i24, ptr %6, align 8
  %8 = zext i24 %7 to i64
  %9 = getelementptr inbounds %"class.llvm::MachineOperand", ptr %5, i64 %8
  %.not29 = icmp eq i24 %7, 0
  br i1 %.not29, label %._crit_edge, label %.lr.ph

.lr.ph:                                           ; preds = %3
  %10 = add i32 %.fr33, -1
  %11 = icmp ult i32 %10, 1073741823
  %.not1626 = icmp ne ptr %2, null
  %.not16.not = and i1 %.not1626, %11
  %12 = getelementptr inbounds i8, ptr %2, i64 8
  br i1 %.not16.not, label %.lr.ph.split.us.split, label %.lr.ph.split

.lr.ph.split.us.split:                            ; preds = %.lr.ph, %_ZNK4llvm18TargetRegisterInfo11regsOverlapENS_8RegisterES1_.exit.thread22.us
  %.01530.us = phi ptr [ %25, %_ZNK4llvm18TargetRegisterInfo11regsOverlapENS_8RegisterES1_.exit.thread22.us ], [ %5, %.lr.ph ]
  %13 = load i32, ptr %.01530.us, align 8
  %14 = and i32 %13, 83886335
  %or.cond28.us.not = icmp eq i32 %14, 67108864
  br i1 %or.cond28.us.not, label %15, label %_ZNK4llvm18TargetRegisterInfo11regsOverlapENS_8RegisterES1_.exit.thread22.us

15:                                               ; preds = %.lr.ph.split.us.split
  %16 = getelementptr inbounds nuw i8, ptr %.01530.us, i64 4
  %17 = load i32, ptr %16, align 4
  %18 = icmp eq i32 %.fr33, %17
  br i1 %18, label %_ZNK4llvm18TargetRegisterInfo11regsOverlapENS_8RegisterES1_.exit.thread.us, label %19

19:                                               ; preds = %15
  %20 = add i32 %17, -1
  %21 = icmp ult i32 %20, 1073741823
  br i1 %21, label %_ZNK4llvm18TargetRegisterInfo11regsOverlapENS_8RegisterES1_.exit.us, label %_ZNK4llvm18TargetRegisterInfo11regsOverlapENS_8RegisterES1_.exit.thread22.us

_ZNK4llvm18TargetRegisterInfo11regsOverlapENS_8RegisterES1_.exit.us: ; preds = %19
  %22 = tail call noundef zeroext i1 @_ZNK4llvm14MCRegisterInfo11regsOverlapENS_10MCRegisterES1_(ptr noundef nonnull align 8 dereferenceable(224) %12, i32 %.fr33, i32 %17) #22
  br i1 %22, label %_ZNK4llvm18TargetRegisterInfo11regsOverlapENS_8RegisterES1_.exit.us._ZNK4llvm18TargetRegisterInfo11regsOverlapENS_8RegisterES1_.exit.thread.us_crit_edge, label %_ZNK4llvm18TargetRegisterInfo11regsOverlapENS_8RegisterES1_.exit.thread22.us

_ZNK4llvm18TargetRegisterInfo11regsOverlapENS_8RegisterES1_.exit.us._ZNK4llvm18TargetRegisterInfo11regsOverlapENS_8RegisterES1_.exit.thread.us_crit_edge: ; preds = %_ZNK4llvm18TargetRegisterInfo11regsOverlapENS_8RegisterES1_.exit.us
  %.pre = load i32, ptr %.01530.us, align 8
  br label %_ZNK4llvm18TargetRegisterInfo11regsOverlapENS_8RegisterES1_.exit.thread.us

_ZNK4llvm18TargetRegisterInfo11regsOverlapENS_8RegisterES1_.exit.thread.us: ; preds = %_ZNK4llvm18TargetRegisterInfo11regsOverlapENS_8RegisterES1_.exit.us._ZNK4llvm18TargetRegisterInfo11regsOverlapENS_8RegisterES1_.exit.thread.us_crit_edge, %15
  %23 = phi i32 [ %.pre, %_ZNK4llvm18TargetRegisterInfo11regsOverlapENS_8RegisterES1_.exit.us._ZNK4llvm18TargetRegisterInfo11regsOverlapENS_8RegisterES1_.exit.thread.us_crit_edge ], [ %13, %15 ]
  %24 = and i32 %23, -67108865
  store i32 %24, ptr %.01530.us, align 8
  br label %_ZNK4llvm18TargetRegisterInfo11regsOverlapENS_8RegisterES1_.exit.thread22.us

_ZNK4llvm18TargetRegisterInfo11regsOverlapENS_8RegisterES1_.exit.thread22.us: ; preds = %19, %_ZNK4llvm18TargetRegisterInfo11regsOverlapENS_8RegisterES1_.exit.thread.us, %_ZNK4llvm18TargetRegisterInfo11regsOverlapENS_8RegisterES1_.exit.us, %.lr.ph.split.us.split
  %25 = getelementptr inbounds i8, ptr %.01530.us, i64 32
  %.not.us = icmp eq ptr %25, %9
  br i1 %.not.us, label %._crit_edge, label %.lr.ph.split.us.split

.lr.ph.split:                                     ; preds = %.lr.ph, %31
  %.01530 = phi ptr [ %32, %31 ], [ %5, %.lr.ph ]
  %26 = load i32, ptr %.01530, align 8
  %27 = and i32 %26, 83886335
  %or.cond28.not = icmp eq i32 %27, 67108864
  br i1 %or.cond28.not, label %_ZNK4llvm18TargetRegisterInfo11regsOverlapENS_8RegisterES1_.exit.thread22, label %31

_ZNK4llvm18TargetRegisterInfo11regsOverlapENS_8RegisterES1_.exit.thread22: ; preds = %.lr.ph.split
  %28 = getelementptr inbounds nuw i8, ptr %.01530, i64 4
  %29 = load i32, ptr %28, align 4
  %.old = icmp eq i32 %.fr33, %29
  br i1 %.old, label %_ZNK4llvm18TargetRegisterInfo11regsOverlapENS_8RegisterES1_.exit.thread, label %31

_ZNK4llvm18TargetRegisterInfo11regsOverlapENS_8RegisterES1_.exit.thread: ; preds = %_ZNK4llvm18TargetRegisterInfo11regsOverlapENS_8RegisterES1_.exit.thread22
  %30 = and i32 %26, -83886336
  store i32 %30, ptr %.01530, align 8
  br label %31

31:                                               ; preds = %_ZNK4llvm18TargetRegisterInfo11regsOverlapENS_8RegisterES1_.exit.thread22, %_ZNK4llvm18TargetRegisterInfo11regsOverlapENS_8RegisterES1_.exit.thread, %.lr.ph.split
  %32 = getelementptr inbounds i8, ptr %.01530, i64 32
  %.not = icmp eq ptr %32, %9
  br i1 %.not, label %._crit_edge, label %.lr.ph.split

._crit_edge:                                      ; preds = %31, %_ZNK4llvm18TargetRegisterInfo11regsOverlapENS_8RegisterES1_.exit.thread22.us, %3
  ret void
}